target datalayout = "e-m:e-p270:32:32-p271:32:32-p272:64:64-i64:64-i128:128-f80:128-n8:16:32:64-S128"
target triple = "x86_64-pc-linux-gnu"

%struct.Bmc_Load_t_ = type { ptr, ptr, ptr, ptr, i32, i32 }
%struct.Gia_Obj_t_ = type <{ i64, i32 }>
%struct.Gia_Man_t_ = type { ptr, ptr, i32, i32, i32, i32, ptr, ptr, i32, i32, i32, ptr, ptr, %struct.Vec_Int_t_, %struct.Vec_Int_t_, i32, i32, i32, %struct.Vec_Int_t_, ptr, ptr, ptr, i32, i32, i32, i32, ptr, ptr, ptr, ptr, ptr, i32, i32, ptr, i32, ptr, ptr, ptr, ptr, ptr, ptr, ptr, ptr, ptr, ptr, ptr, ptr, ptr, ptr, ptr, ptr, ptr, ptr, %struct.Vec_Int_t_, %struct.Vec_Int_t_, ptr, ptr, ptr, ptr, ptr, ptr, ptr, ptr, ptr, ptr, ptr, ptr, ptr, ptr, ptr, ptr, ptr, ptr, ptr, ptr, ptr, i32, float, float, ptr, ptr, i32, ptr, ptr, ptr, ptr, ptr, ptr, ptr, ptr, ptr, ptr, ptr, ptr, ptr, ptr, ptr, i64, i64, ptr, ptr, i32, i32, i32, i32, i32, i32, i32, i32, i32, i32, i32, i32, ptr, ptr, ptr, ptr, ptr, ptr, ptr, ptr, i32, i32, i32, ptr, i32, i32, ptr, ptr, ptr, ptr, ptr, ptr, i32, i32, ptr, %struct.Vec_Int_t_, %struct.Vec_Int_t_, %struct.Vec_Int_t_, ptr, ptr, ptr, i32, i32, i32, i32, ptr, ptr, ptr, ptr, ptr }
%struct.Vec_Int_t_ = type { i32, i32, ptr }

; Function Attrs: inlinehint nounwind uwtable
define internal i32 @Gia_ObjFaninId1(ptr noundef %0, i32 noundef %1) #2 {
  %3 = alloca ptr, align 8
  %4 = alloca i32, align 4
  store ptr %0, ptr %3, align 8, !tbaa !16
  store i32 %1, ptr %4, align 4, !tbaa !8
  %5 = load i32, ptr %4, align 4, !tbaa !8
  %6 = load ptr, ptr %3, align 8, !tbaa !16
  %7 = load i64, ptr %6, align 4
  %8 = lshr i64 %7, 32
  %9 = and i64 %8, 536870911
  %10 = trunc i64 %9 to i32
  %11 = sub nsw i32 %5, %10
  ret i32 %11
}

; Function Attrs: inlinehint nounwind uwtable
define internal i32 @Gia_ObjFaninId0(ptr noundef %0, i32 noundef %1) #2 {
  %3 = alloca ptr, align 8
  %4 = alloca i32, align 4
  store ptr %0, ptr %3, align 8, !tbaa !16
  store i32 %1, ptr %4, align 4, !tbaa !8
  %5 = load i32, ptr %4, align 4, !tbaa !8
  %6 = load ptr, ptr %3, align 8, !tbaa !16
  %7 = load i64, ptr %6, align 4
  %8 = and i64 %7, 536870911
  %9 = trunc i64 %8 to i32
  %10 = sub nsw i32 %5, %9
  ret i32 %10
}

; Function Attrs: inlinehint nounwind uwtable
define internal i32 @Gia_ObjId(ptr noundef %0, ptr noundef %1) #2 {
  %3 = alloca ptr, align 8
  %4 = alloca ptr, align 8
  store ptr %0, ptr %3, align 8, !tbaa !22
  store ptr %1, ptr %4, align 8, !tbaa !16
  %5 = load ptr, ptr %4, align 8, !tbaa !16
  %6 = load ptr, ptr %3, align 8, !tbaa !22
  %7 = getelementptr inbounds nuw %struct.Gia_Man_t_, ptr %6, i32 0, i32 6
  %8 = load ptr, ptr %7, align 8, !tbaa !23
  %9 = ptrtoint ptr %5 to i64
  %10 = ptrtoint ptr %8 to i64
  %11 = sub i64 %9, %10
  %12 = sdiv exact i64 %11, 12
  %13 = trunc i64 %12 to i32
  ret i32 %13
}

; Function Attrs: inlinehint nounwind uwtable
define internal i32 @Gia_ObjFaninC1(ptr noundef %0) #2 {
  %2 = alloca ptr, align 8
  store ptr %0, ptr %2, align 8, !tbaa !16
  %3 = load ptr, ptr %2, align 8, !tbaa !16
  %4 = load i64, ptr %3, align 4
  %5 = lshr i64 %4, 61
  %6 = and i64 %5, 1
  %7 = trunc i64 %6 to i32
  ret i32 %7
}

; Function Attrs: inlinehint nounwind uwtable
define internal i32 @Gia_ObjFaninId1p(ptr noundef %0, ptr noundef %1) #2 {
  %3 = alloca ptr, align 8
  %4 = alloca ptr, align 8
  store ptr %0, ptr %3, align 8, !tbaa !22
  store ptr %1, ptr %4, align 8, !tbaa !16
  %5 = load ptr, ptr %4, align 8, !tbaa !16
  %6 = load ptr, ptr %3, align 8, !tbaa !22
  %7 = load ptr, ptr %4, align 8, !tbaa !16
  %8 = call i32 @Gia_ObjId(ptr noundef %6, ptr noundef %7)
  %9 = call i32 @Gia_ObjFaninId1(ptr noundef %5, i32 noundef %8)
  ret i32 %9
}

; Function Attrs: inlinehint nounwind uwtable
define internal i32 @Abc_Var2Lit(i32 noundef %0, i32 noundef %1) #2 {
  %3 = alloca i32, align 4
  %4 = alloca i32, align 4
  store i32 %0, ptr %3, align 4, !tbaa !8
  store i32 %1, ptr %4, align 4, !tbaa !8
  %5 = load i32, ptr %3, align 4, !tbaa !8
  %6 = load i32, ptr %3, align 4, !tbaa !8
  %7 = add nsw i32 %5, %6
  %8 = load i32, ptr %4, align 4, !tbaa !8
  %9 = add nsw i32 %7, %8
  ret i32 %9
}

; Function Attrs: inlinehint nounwind uwtable
define internal i32 @Gia_ObjFaninC0(ptr noundef %0) #2 {
  %2 = alloca ptr, align 8
  store ptr %0, ptr %2, align 8, !tbaa !16
  %3 = load ptr, ptr %2, align 8, !tbaa !16
  %4 = load i64, ptr %3, align 4
  %5 = lshr i64 %4, 29
  %6 = and i64 %5, 1
  %7 = trunc i64 %6 to i32
  ret i32 %7
}

; Function Attrs: inlinehint nounwind uwtable
define internal i32 @Gia_ObjFaninId0p(ptr noundef %0, ptr noundef %1) #2 {
  %3 = alloca ptr, align 8
  %4 = alloca ptr, align 8
  store ptr %0, ptr %3, align 8, !tbaa !22
  store ptr %1, ptr %4, align 8, !tbaa !16
  %5 = load ptr, ptr %4, align 8, !tbaa !16
  %6 = load ptr, ptr %3, align 8, !tbaa !22
  %7 = load ptr, ptr %4, align 8, !tbaa !16
  %8 = call i32 @Gia_ObjId(ptr noundef %6, ptr noundef %7)
  %9 = call i32 @Gia_ObjFaninId0(ptr noundef %5, i32 noundef %8)
  ret i32 %9
}

; Function Attrs: inlinehint nounwind uwtable
define internal i32 @Abc_LitNot(i32 noundef %0) #2 {
  %2 = alloca i32, align 4
  store i32 %0, ptr %2, align 4, !tbaa !8
  %3 = load i32, ptr %2, align 4, !tbaa !8
  %4 = xor i32 %3, 1
  ret i32 %4
}

; Function Attrs: inlinehint nounwind uwtable
define internal i32 @Abc_LitIsCompl(i32 noundef %0) #2 {
  %2 = alloca i32, align 4
  store i32 %0, ptr %2, align 4, !tbaa !8
  %3 = load i32, ptr %2, align 4, !tbaa !8
  %4 = and i32 %3, 1
  ret i32 %4
}

; Function Attrs: inlinehint nounwind uwtable
define internal i32 @Gia_ObjIsConst0(ptr noundef %0) #2 {
  %2 = alloca ptr, align 8
  store ptr %0, ptr %2, align 8, !tbaa !16
  %3 = load ptr, ptr %2, align 8, !tbaa !16
  %4 = load i64, ptr %3, align 4
  %5 = and i64 %4, 536870911
  %6 = trunc i64 %5 to i32
  %7 = icmp eq i32 %6, 536870911
  br i1 %7, label %8, label %15

8:                                                ; preds = %1
  %9 = load ptr, ptr %2, align 8, !tbaa !16
  %10 = load i64, ptr %9, align 4
  %11 = lshr i64 %10, 32
  %12 = and i64 %11, 536870911
  %13 = trunc i64 %12 to i32
  %14 = icmp eq i32 %13, 536870911
  br label %15

15:                                               ; preds = %8, %1
  %16 = phi i1 [ false, %1 ], [ %14, %8 ]
  %17 = zext i1 %16 to i32
  ret i32 %17
}

; Function Attrs: inlinehint nounwind uwtable
define internal i32 @Gia_ObjIsCi(ptr noundef %0) #2 {
  %2 = alloca ptr, align 8
  store ptr %0, ptr %2, align 8, !tbaa !16
  %3 = load ptr, ptr %2, align 8, !tbaa !16
  %4 = load i64, ptr %3, align 4
  %5 = lshr i64 %4, 31
  %6 = and i64 %5, 1
  %7 = trunc i64 %6 to i32
  %8 = icmp ne i32 %7, 0
  br i1 %8, label %9, label %15

9:                                                ; preds = %1
  %10 = load ptr, ptr %2, align 8, !tbaa !16
  %11 = load i64, ptr %10, align 4
  %12 = and i64 %11, 536870911
  %13 = trunc i64 %12 to i32
  %14 = icmp eq i32 %13, 536870911
  br label %15

15:                                               ; preds = %9, %1
  %16 = phi i1 [ false, %1 ], [ %14, %9 ]
  %17 = zext i1 %16 to i32
  ret i32 %17
}

; Function Attrs: inlinehint nounwind uwtable
define internal ptr @Gia_ManObj(ptr noundef %0, i32 noundef %1) #2 {
  %3 = alloca ptr, align 8
  %4 = alloca i32, align 4
  store ptr %0, ptr %3, align 8, !tbaa !22
  store i32 %1, ptr %4, align 4, !tbaa !8
  %5 = load ptr, ptr %3, align 8, !tbaa !22
  %6 = getelementptr inbounds nuw %struct.Gia_Man_t_, ptr %5, i32 0, i32 6
  %7 = load ptr, ptr %6, align 8, !tbaa !23
  %8 = load i32, ptr %4, align 4, !tbaa !8
  %9 = sext i32 %8 to i64
  %10 = getelementptr inbounds %struct.Gia_Obj_t_, ptr %7, i64 %9
  ret ptr %10
}

; Function Attrs: inlinehint nounwind uwtable
define internal i32 @Vec_IntEntry(ptr noundef %0, i32 noundef %1) #2 {
  %3 = alloca ptr, align 8
  %4 = alloca i32, align 4
  store ptr %0, ptr %3, align 8, !tbaa !41
  store i32 %1, ptr %4, align 4, !tbaa !8
  %5 = load ptr, ptr %3, align 8, !tbaa !41
  %6 = getelementptr inbounds nuw %struct.Vec_Int_t_, ptr %5, i32 0, i32 2
  %7 = load ptr, ptr %6, align 8, !tbaa !44
  %8 = load i32, ptr %4, align 4, !tbaa !8
  %9 = sext i32 %8 to i64
  %10 = getelementptr inbounds i32, ptr %7, i64 %9
  %11 = load i32, ptr %10, align 4, !tbaa !8
  ret i32 %11
}

; Function Attrs: inlinehint nounwind uwtable
define internal i32 @Abc_Lit2Var(i32 noundef %0) #2 {
  %2 = alloca i32, align 4
  store i32 %0, ptr %2, align 4, !tbaa !8
  %3 = load i32, ptr %2, align 4, !tbaa !8
  %4 = ashr i32 %3, 1
  ret i32 %4
}

; Function Attrs: nounwind uwtable
define i32 @Bmc_LoadAddCnf(ptr noundef %0, i32 noundef %1) #0 {
  %3 = alloca i32, align 4
  %4 = alloca ptr, align 8
  %5 = alloca i32, align 4
  %6 = alloca ptr, align 8
  %7 = alloca [3 x i32], align 4
  %8 = alloca i32, align 4
  %9 = alloca ptr, align 8
  %10 = alloca i32, align 4
  store ptr %0, ptr %4, align 8, !tbaa !45
  store i32 %1, ptr %5, align 4, !tbaa !8
  call void @llvm.lifetime.start.p0(i64 8, ptr %6) #10
  %11 = load ptr, ptr %4, align 8, !tbaa !45
  store ptr %11, ptr %6, align 8, !tbaa !3
  call void @llvm.lifetime.start.p0(i64 12, ptr %7) #10
  call void @llvm.lifetime.start.p0(i64 4, ptr %8) #10
  %12 = load i32, ptr %5, align 4, !tbaa !8
  %13 = call i32 @Abc_Lit2Var(i32 noundef %12)
  store i32 %13, ptr %8, align 4, !tbaa !8
  call void @llvm.lifetime.start.p0(i64 8, ptr %9) #10
  %14 = load ptr, ptr %6, align 8, !tbaa !3
  %15 = getelementptr inbounds nuw %struct.Bmc_Load_t_, ptr %14, i32 0, i32 1
  %16 = load ptr, ptr %15, align 8, !tbaa !10
  %17 = load ptr, ptr %6, align 8, !tbaa !3
  %18 = getelementptr inbounds nuw %struct.Bmc_Load_t_, ptr %17, i32 0, i32 3
  %19 = load ptr, ptr %18, align 8, !tbaa !20
  %20 = load i32, ptr %8, align 4, !tbaa !8
  %21 = call i32 @Vec_IntEntry(ptr noundef %19, i32 noundef %20)
  %22 = call ptr @Gia_ManObj(ptr noundef %16, i32 noundef %21)
  store ptr %22, ptr %9, align 8, !tbaa !16
  %23 = load ptr, ptr %6, align 8, !tbaa !3
  %24 = getelementptr inbounds nuw %struct.Bmc_Load_t_, ptr %23, i32 0, i32 4
  %25 = load i32, ptr %24, align 8, !tbaa !46
  %26 = add nsw i32 %25, 1
  store i32 %26, ptr %24, align 8, !tbaa !46
  %27 = load ptr, ptr %9, align 8, !tbaa !16
  %28 = call i32 @Gia_ObjIsCi(ptr noundef %27)
  %29 = icmp ne i32 %28, 0
  br i1 %29, label %34, label %30

30:                                               ; preds = %2
  %31 = load ptr, ptr %9, align 8, !tbaa !16
  %32 = call i32 @Gia_ObjIsConst0(ptr noundef %31)
  %33 = icmp ne i32 %32, 0
  br i1 %33, label %34, label %35

34:                                               ; preds = %30, %2
  store i32 0, ptr %3, align 4
  store i32 1, ptr %10, align 4
  br label %147

35:                                               ; preds = %30
  %36 = load i32, ptr %5, align 4, !tbaa !8
  %37 = call i32 @Abc_LitIsCompl(i32 noundef %36)
  %38 = icmp ne i32 %37, 0
  br i1 %38, label %39, label %46

39:                                               ; preds = %35
  %40 = load ptr, ptr %9, align 8, !tbaa !16
  %41 = load i64, ptr %40, align 4
  %42 = lshr i64 %41, 62
  %43 = and i64 %42, 1
  %44 = trunc i64 %43 to i32
  %45 = icmp ne i32 %44, 0
  br i1 %45, label %53, label %54

46:                                               ; preds = %35
  %47 = load ptr, ptr %9, align 8, !tbaa !16
  %48 = load i64, ptr %47, align 4
  %49 = lshr i64 %48, 30
  %50 = and i64 %49, 1
  %51 = trunc i64 %50 to i32
  %52 = icmp ne i32 %51, 0
  br i1 %52, label %53, label %54

53:                                               ; preds = %46, %39
  store i32 0, ptr %3, align 4
  store i32 1, ptr %10, align 4
  br label %147

54:                                               ; preds = %46, %39
  %55 = load i32, ptr %5, align 4, !tbaa !8
  %56 = call i32 @Abc_LitNot(i32 noundef %55)
  %57 = getelementptr inbounds [3 x i32], ptr %7, i64 0, i64 0
  store i32 %56, ptr %57, align 4, !tbaa !8
  %58 = load i32, ptr %5, align 4, !tbaa !8
  %59 = call i32 @Abc_LitIsCompl(i32 noundef %58)
  %60 = icmp ne i32 %59, 0
  br i1 %60, label %61, label %101

61:                                               ; preds = %54
  %62 = load ptr, ptr %6, align 8, !tbaa !3
  %63 = load ptr, ptr %6, align 8, !tbaa !3
  %64 = getelementptr inbounds nuw %struct.Bmc_Load_t_, ptr %63, i32 0, i32 1
  %65 = load ptr, ptr %64, align 8, !tbaa !10
  %66 = load ptr, ptr %9, align 8, !tbaa !16
  %67 = call i32 @Gia_ObjFaninId0p(ptr noundef %65, ptr noundef %66)
  %68 = call i32 @Bmc_LoadGetSatVar(ptr noundef %62, i32 noundef %67)
  %69 = load ptr, ptr %9, align 8, !tbaa !16
  %70 = call i32 @Gia_ObjFaninC0(ptr noundef %69)
  %71 = icmp ne i32 %70, 0
  %72 = xor i1 %71, true
  %73 = zext i1 %72 to i32
  %74 = call i32 @Abc_Var2Lit(i32 noundef %68, i32 noundef %73)
  %75 = getelementptr inbounds [3 x i32], ptr %7, i64 0, i64 1
  store i32 %74, ptr %75, align 4, !tbaa !8
  %76 = load ptr, ptr %6, align 8, !tbaa !3
  %77 = load ptr, ptr %6, align 8, !tbaa !3
  %78 = getelementptr inbounds nuw %struct.Bmc_Load_t_, ptr %77, i32 0, i32 1
  %79 = load ptr, ptr %78, align 8, !tbaa !10
  %80 = load ptr, ptr %9, align 8, !tbaa !16
  %81 = call i32 @Gia_ObjFaninId1p(ptr noundef %79, ptr noundef %80)
  %82 = call i32 @Bmc_LoadGetSatVar(ptr noundef %76, i32 noundef %81)
  %83 = load ptr, ptr %9, align 8, !tbaa !16
  %84 = call i32 @Gia_ObjFaninC1(ptr noundef %83)
  %85 = icmp ne i32 %84, 0
  %86 = xor i1 %85, true
  %87 = zext i1 %86 to i32
  %88 = call i32 @Abc_Var2Lit(i32 noundef %82, i32 noundef %87)
  %89 = getelementptr inbounds [3 x i32], ptr %7, i64 0, i64 2
  store i32 %88, ptr %89, align 4, !tbaa !8
  %90 = load ptr, ptr %6, align 8, !tbaa !3
  %91 = getelementptr inbounds nuw %struct.Bmc_Load_t_, ptr %90, i32 0, i32 2
  %92 = load ptr, ptr %91, align 8, !tbaa !21
  %93 = getelementptr inbounds [3 x i32], ptr %7, i64 0, i64 0
  %94 = getelementptr inbounds [3 x i32], ptr %7, i64 0, i64 0
  %95 = getelementptr inbounds i32, ptr %94, i64 3
  %96 = call i32 @sat_solver_clause_new(ptr noundef %92, ptr noundef %93, ptr noundef %95, i32 noundef 0)
  %97 = load ptr, ptr %9, align 8, !tbaa !16
  %98 = load i64, ptr %97, align 4
  %99 = and i64 %98, -4611686018427387905
  %100 = or i64 %99, 4611686018427387904
  store i64 %100, ptr %97, align 4
  br label %142

101:                                              ; preds = %54
  %102 = load ptr, ptr %6, align 8, !tbaa !3
  %103 = load ptr, ptr %6, align 8, !tbaa !3
  %104 = getelementptr inbounds nuw %struct.Bmc_Load_t_, ptr %103, i32 0, i32 1
  %105 = load ptr, ptr %104, align 8, !tbaa !10
  %106 = load ptr, ptr %9, align 8, !tbaa !16
  %107 = call i32 @Gia_ObjFaninId0p(ptr noundef %105, ptr noundef %106)
  %108 = call i32 @Bmc_LoadGetSatVar(ptr noundef %102, i32 noundef %107)
  %109 = load ptr, ptr %9, align 8, !tbaa !16
  %110 = call i32 @Gia_ObjFaninC0(ptr noundef %109)
  %111 = call i32 @Abc_Var2Lit(i32 noundef %108, i32 noundef %110)
  %112 = getelementptr inbounds [3 x i32], ptr %7, i64 0, i64 1
  store i32 %111, ptr %112, align 4, !tbaa !8
  %113 = load ptr, ptr %6, align 8, !tbaa !3
  %114 = getelementptr inbounds nuw %struct.Bmc_Load_t_, ptr %113, i32 0, i32 2
  %115 = load ptr, ptr %114, align 8, !tbaa !21
  %116 = getelementptr inbounds [3 x i32], ptr %7, i64 0, i64 0
  %117 = getelementptr inbounds [3 x i32], ptr %7, i64 0, i64 0
  %118 = getelementptr inbounds i32, ptr %117, i64 2
  %119 = call i32 @sat_solver_clause_new(ptr noundef %115, ptr noundef %116, ptr noundef %118, i32 noundef 0)
  %120 = load ptr, ptr %6, align 8, !tbaa !3
  %121 = load ptr, ptr %6, align 8, !tbaa !3
  %122 = getelementptr inbounds nuw %struct.Bmc_Load_t_, ptr %121, i32 0, i32 1
  %123 = load ptr, ptr %122, align 8, !tbaa !10
  %124 = load ptr, ptr %9, align 8, !tbaa !16
  %125 = call i32 @Gia_ObjFaninId1p(ptr noundef %123, ptr noundef %124)
  %126 = call i32 @Bmc_LoadGetSatVar(ptr noundef %120, i32 noundef %125)
  %127 = load ptr, ptr %9, align 8, !tbaa !16
  %128 = call i32 @Gia_ObjFaninC1(ptr noundef %127)
  %129 = call i32 @Abc_Var2Lit(i32 noundef %126, i32 noundef %128)
  %130 = getelementptr inbounds [3 x i32], ptr %7, i64 0, i64 1
  store i32 %129, ptr %130, align 4, !tbaa !8
  %131 = load ptr, ptr %6, align 8, !tbaa !3
  %132 = getelementptr inbounds nuw %struct.Bmc_Load_t_, ptr %131, i32 0, i32 2
  %133 = load ptr, ptr %132, align 8, !tbaa !21
  %134 = getelementptr inbounds [3 x i32], ptr %7, i64 0, i64 0
  %135 = getelementptr inbounds [3 x i32], ptr %7, i64 0, i64 0
  %136 = getelementptr inbounds i32, ptr %135, i64 2
  %137 = call i32 @sat_solver_clause_new(ptr noundef %133, ptr noundef %134, ptr noundef %136, i32 noundef 0)
  %138 = load ptr, ptr %9, align 8, !tbaa !16
  %139 = load i64, ptr %138, align 4
  %140 = and i64 %139, -1073741825
  %141 = or i64 %140, 1073741824
  store i64 %141, ptr %138, align 4
  br label %142

142:                                              ; preds = %101, %61
  %143 = load ptr, ptr %6, align 8, !tbaa !3
  %144 = getelementptr inbounds nuw %struct.Bmc_Load_t_, ptr %143, i32 0, i32 5
  %145 = load i32, ptr %144, align 4, !tbaa !47
  %146 = add nsw i32 %145, 1
  store i32 %146, ptr %144, align 4, !tbaa !47
  store i32 1, ptr %3, align 4
  store i32 1, ptr %10, align 4
  br label %147

147:                                              ; preds = %142, %53, %34
  call void @llvm.lifetime.end.p0(i64 8, ptr %9) #10
  call void @llvm.lifetime.end.p0(i64 4, ptr %8) #10
  call void @llvm.lifetime.end.p0(i64 12, ptr %7) #10
  call void @llvm.lifetime.end.p0(i64 8, ptr %6) #10
  %148 = load i32, ptr %3, align 4
  ret i32 %148
}