; Function Attrs: nounwind uwtable
define range(i32 0, 2) i32 @Bmc_LoadAddCnf(ptr noundef captures(none) %0, i32 noundef %1) #0 {
  %3 = alloca [3 x i32], align 4
  call void @llvm.lifetime.start.p0(i64 12, ptr nonnull %3) #14
  %4 = ashr i32 %1, 1
  %5 = getelementptr inbounds nuw i8, ptr %0, i64 8
  %6 = load ptr, ptr %5, align 8, !tbaa !3
  %7 = getelementptr inbounds nuw i8, ptr %0, i64 24
  %8 = load ptr, ptr %7, align 8, !tbaa !34
  %9 = getelementptr i8, ptr %8, i64 8
  %.val42 = load ptr, ptr %9, align 8, !tbaa !37
  %10 = sext i32 %4 to i64
  %11 = getelementptr inbounds i32, ptr %.val42, i64 %10
  %12 = load i32, ptr %11, align 4, !tbaa !38
  %13 = getelementptr i8, ptr %6, i64 32
  %.val = load ptr, ptr %13, align 8, !tbaa !13
  %14 = sext i32 %12 to i64
  %15 = getelementptr inbounds %struct.Gia_Obj_t_, ptr %.val, i64 %14
  %16 = getelementptr inbounds nuw i8, ptr %0, i64 32
  %17 = load i32, ptr %16, align 8, !tbaa !40
  %18 = add nsw i32 %17, 1
  store i32 %18, ptr %16, align 8, !tbaa !40
  %.val43 = load i64, ptr %15, align 4
  %19 = and i64 %.val43, 2684354559
  %narrow.i.not = icmp eq i64 %19, 2684354559
  %20 = and i64 %.val43, 2305843005455597567
  %narrow.i53.not = icmp eq i64 %20, 2305843005455597567
  %or.cond = or i1 %narrow.i.not, %narrow.i53.not
  br i1 %or.cond, label %104, label %21

21:                                               ; preds = %2
  %22 = and i32 %1, 1
  %.not36 = icmp eq i32 %22, 0
  br i1 %.not36, label %25, label %23

23:                                               ; preds = %21
  %24 = and i64 %.val43, 4611686018427387904
  %.not38 = icmp eq i64 %24, 0
  br i1 %.not38, label %27, label %104

25:                                               ; preds = %21
  %26 = and i64 %.val43, 1073741824
  %.not37 = icmp eq i64 %26, 0
  br i1 %.not37, label %63, label %104

27:                                               ; preds = %23
  %28 = and i32 %1, -2
  store i32 %28, ptr %3, align 4, !tbaa !38
  %29 = ptrtoint ptr %15 to i64
  %30 = trunc i64 %.val43 to i32
  %31 = and i32 %30, 536870911
  %32 = sub nsw i32 %12, %31
  %33 = tail call i32 @Bmc_LoadGetSatVar(ptr noundef nonnull %0, i32 noundef %32)
  %.val47 = load i64, ptr %15, align 4
  %34 = trunc i64 %.val47 to i32
  %35 = lshr i32 %34, 29
  %36 = and i32 %35, 1
  %37 = shl nsw i32 %33, 1
  %38 = or disjoint i32 %36, %37
  %39 = xor i32 %38, 1
  %40 = getelementptr inbounds nuw i8, ptr %3, i64 4
  store i32 %39, ptr %40, align 4, !tbaa !38
  %41 = load ptr, ptr %5, align 8, !tbaa !3
  %42 = getelementptr i8, ptr %41, i64 32
  %.val49 = load ptr, ptr %42, align 8, !tbaa !13
  %43 = ptrtoint ptr %.val49 to i64
  %44 = sub i64 %29, %43
  %45 = sdiv exact i64 %44, 12
  %46 = trunc i64 %45 to i32
  %47 = lshr i64 %.val47, 32
  %48 = trunc nuw i64 %47 to i32
  %49 = and i32 %48, 536870911
  %50 = sub nsw i32 %46, %49
  %51 = tail call i32 @Bmc_LoadGetSatVar(ptr noundef nonnull %0, i32 noundef %50)
  %.val51 = load i64, ptr %15, align 4
  %52 = lshr i64 %.val51, 61
  %53 = trunc nuw nsw i64 %52 to i32
  %54 = and i32 %53, 1
  %55 = shl nsw i32 %51, 1
  %56 = or disjoint i32 %54, %55
  %57 = xor i32 %56, 1
  %58 = getelementptr inbounds nuw i8, ptr %3, i64 8
  store i32 %57, ptr %58, align 4, !tbaa !38
  %59 = getelementptr inbounds nuw i8, ptr %0, i64 16
  %60 = load ptr, ptr %59, align 8, !tbaa !39
  %61 = getelementptr inbounds nuw i8, ptr %3, i64 12
  %62 = call i32 @sat_solver_clause_new(ptr noundef %60, ptr noundef nonnull %3, ptr noundef nonnull %61, i32 noundef 0) #14
  br label %98

63:                                               ; preds = %25
  %64 = or disjoint i32 %1, 1
  store i32 %64, ptr %3, align 4, !tbaa !38
  %65 = ptrtoint ptr %15 to i64
  %66 = trunc i64 %.val43 to i32
  %67 = and i32 %66, 536870911
  %68 = sub nsw i32 %12, %67
  %69 = tail call i32 @Bmc_LoadGetSatVar(ptr noundef nonnull %0, i32 noundef %68)
  %.val48 = load i64, ptr %15, align 4
  %70 = trunc i64 %.val48 to i32
  %71 = lshr i32 %70, 29
  %72 = and i32 %71, 1
  %73 = shl nsw i32 %69, 1
  %74 = or disjoint i32 %72, %73
  %75 = getelementptr inbounds nuw i8, ptr %3, i64 4
  store i32 %74, ptr %75, align 4, !tbaa !38
  %76 = getelementptr inbounds nuw i8, ptr %0, i64 16
  %77 = load ptr, ptr %76, align 8, !tbaa !39
  %78 = getelementptr inbounds nuw i8, ptr %3, i64 8
  %79 = call i32 @sat_solver_clause_new(ptr noundef %77, ptr noundef nonnull %3, ptr noundef nonnull %78, i32 noundef 0) #14
  %80 = load ptr, ptr %5, align 8, !tbaa !3
  %81 = getelementptr i8, ptr %80, i64 32
  %.val50 = load ptr, ptr %81, align 8, !tbaa !13
  %82 = ptrtoint ptr %.val50 to i64
  %83 = sub i64 %65, %82
  %84 = sdiv exact i64 %83, 12
  %85 = trunc i64 %84 to i32
  %.val3.i56 = load i64, ptr %15, align 4
  %86 = lshr i64 %.val3.i56, 32
  %87 = trunc nuw i64 %86 to i32
  %88 = and i32 %87, 536870911
  %89 = sub nsw i32 %85, %88
  %90 = call i32 @Bmc_LoadGetSatVar(ptr noundef nonnull %0, i32 noundef %89)
  %.val52 = load i64, ptr %15, align 4
  %91 = lshr i64 %.val52, 61
  %92 = trunc nuw nsw i64 %91 to i32
  %93 = and i32 %92, 1
  %94 = shl nsw i32 %90, 1
  %95 = or disjoint i32 %93, %94
  store i32 %95, ptr %75, align 4, !tbaa !38
  %96 = load ptr, ptr %76, align 8, !tbaa !39
  %97 = call i32 @sat_solver_clause_new(ptr noundef %96, ptr noundef nonnull %3, ptr noundef nonnull %78, i32 noundef 0) #14
  br label %98

98:                                               ; preds = %63, %27
  %.sink57 = phi i64 [ 1073741824, %63 ], [ 4611686018427387904, %27 ]
  %99 = load i64, ptr %15, align 4
  %100 = or i64 %99, %.sink57
  store i64 %100, ptr %15, align 4
  %101 = getelementptr inbounds nuw i8, ptr %0, i64 36
  %102 = load i32, ptr %101, align 4, !tbaa !41
  %103 = add nsw i32 %102, 1
  store i32 %103, ptr %101, align 4, !tbaa !41
  br label %104

104:                                              ; preds = %23, %25, %2, %98
  %.0 = phi i32 [ 1, %98 ], [ 0, %2 ], [ 0, %25 ], [ 0, %23 ]
  call void @llvm.lifetime.end.p0(i64 12, ptr nonnull %3) #14
  ret i32 %.0
}